; Function Attrs: mustprogress null_pointer_is_valid sspstrong uwtable
define void @_ZN18TapParameterDialog25addTreeCollapseAllActionsEv(ptr noundef align 8 dereferenceable_or_null(232) %0) local_unnamed_addr #3 align 2 personality ptr @__gxx_personality_v0 {
  %2 = alloca %class.QString, align 8
  %3 = alloca %"class.QMetaObject::Connection", align 8
  %4 = alloca %class.QString, align 8
  %5 = alloca %"class.QMetaObject::Connection", align 8
  %6 = getelementptr inbounds nuw i8, ptr %0, i64 152
  %7 = tail call noundef ptr @_ZN5QMenu12addSeparatorEv(ptr noundef nonnull align 8 dereferenceable_or_null(40) %6)
  %8 = tail call noalias noundef dereferenceable_or_null(16) ptr @_Znwm(i64 noundef 16) #33
  call void @llvm.lifetime.start.p0(i64 24, ptr nonnull %2) #31
  invoke void @_ZNK11QMetaObject2trEPKcS1_i(ptr dead_on_unwind nonnull writable sret(%class.QString) align 8 %2, ptr noundef nonnull align 8 dereferenceable_or_null(56) @_ZN18TapParameterDialog16staticMetaObjectE, ptr noundef nonnull @.str.29, ptr noundef null, i32 noundef -1)
          to label %_ZN18TapParameterDialog2trEPKcS1_i.exit unwind label %20

_ZN18TapParameterDialog2trEPKcS1_i.exit:          ; preds = %1
  invoke void @_ZN7QActionC1ERK7QStringP7QObject(ptr noundef align 8 dereferenceable_or_null(16) %8, ptr noundef nonnull align 8 dereferenceable(24) %2, ptr noundef %0)
          to label %9 unwind label %22

9:                                                ; preds = %_ZN18TapParameterDialog2trEPKcS1_i.exit
  %10 = load ptr, ptr %2, align 8
  %.not.i.i.i = icmp eq ptr %10, null
  br i1 %.not.i.i.i, label %_ZN7QStringD2Ev.exit, label %_ZN17QArrayDataPointerIDsE5derefEv.exit.i.i

_ZN17QArrayDataPointerIDsE5derefEv.exit.i.i:      ; preds = %9
  %11 = atomicrmw sub ptr %10, i32 1 seq_cst, align 4
  %.not.i.i = icmp eq i32 %11, 1
  br i1 %.not.i.i, label %12, label %_ZN7QStringD2Ev.exit

12:                                               ; preds = %_ZN17QArrayDataPointerIDsE5derefEv.exit.i.i
  %13 = load ptr, ptr %2, align 8
  call void @_ZN10QArrayData10deallocateEPS_xx(ptr noundef %13, i64 noundef 2, i64 noundef 8) #31
  br label %_ZN7QStringD2Ev.exit

_ZN7QStringD2Ev.exit:                             ; preds = %9, %_ZN17QArrayDataPointerIDsE5derefEv.exit.i.i, %12
  call void @llvm.lifetime.end.p0(i64 24, ptr nonnull %2) #31
  call void @_ZN7QWidget9addActionEP7QAction(ptr noundef nonnull align 8 dereferenceable_or_null(40) %6, ptr noundef %8)
  call void @_ZN7QObject7connectEPKS_PKcS1_S3_N2Qt14ConnectionTypeE(ptr dead_on_unwind nonnull writable sret(%"class.QMetaObject::Connection") align 8 %3, ptr noundef %8, ptr noundef nonnull @.str.27, ptr noundef %0, ptr noundef nonnull @.str.30, i32 noundef 0)
  call void @_ZN11QMetaObject10ConnectionD1Ev(ptr noundef nonnull align 8 dereferenceable_or_null(8) %3) #31
  %14 = call noalias noundef dereferenceable_or_null(16) ptr @_Znwm(i64 noundef 16) #33
  call void @llvm.lifetime.start.p0(i64 24, ptr nonnull %4) #31
  invoke void @_ZNK11QMetaObject2trEPKcS1_i(ptr dead_on_unwind nonnull writable sret(%class.QString) align 8 %4, ptr noundef nonnull align 8 dereferenceable_or_null(56) @_ZN18TapParameterDialog16staticMetaObjectE, ptr noundef nonnull @.str.31, ptr noundef null, i32 noundef -1)
          to label %_ZN18TapParameterDialog2trEPKcS1_i.exit15 unwind label %28

_ZN18TapParameterDialog2trEPKcS1_i.exit15:        ; preds = %_ZN7QStringD2Ev.exit
  invoke void @_ZN7QActionC1ERK7QStringP7QObject(ptr noundef align 8 dereferenceable_or_null(16) %14, ptr noundef nonnull align 8 dereferenceable(24) %4, ptr noundef %0)
          to label %15 unwind label %30

15:                                               ; preds = %_ZN18TapParameterDialog2trEPKcS1_i.exit15
  %16 = load ptr, ptr %4, align 8
  %.not.i.i.i16 = icmp eq ptr %16, null
  br i1 %.not.i.i.i16, label %_ZN7QStringD2Ev.exit19, label %_ZN17QArrayDataPointerIDsE5derefEv.exit.i.i17

_ZN17QArrayDataPointerIDsE5derefEv.exit.i.i17:    ; preds = %15
  %17 = atomicrmw sub ptr %16, i32 1 seq_cst, align 4
  %.not.i.i18 = icmp eq i32 %17, 1
  br i1 %.not.i.i18, label %18, label %_ZN7QStringD2Ev.exit19

18:                                               ; preds = %_ZN17QArrayDataPointerIDsE5derefEv.exit.i.i17
  %19 = load ptr, ptr %4, align 8
  call void @_ZN10QArrayData10deallocateEPS_xx(ptr noundef %19, i64 noundef 2, i64 noundef 8) #31
  br label %_ZN7QStringD2Ev.exit19

_ZN7QStringD2Ev.exit19:                           ; preds = %15, %_ZN17QArrayDataPointerIDsE5derefEv.exit.i.i17, %18
  call void @llvm.lifetime.end.p0(i64 24, ptr nonnull %4) #31
  call void @_ZN7QWidget9addActionEP7QAction(ptr noundef nonnull align 8 dereferenceable_or_null(40) %6, ptr noundef %14)
  call void @_ZN7QObject7connectEPKS_PKcS1_S3_N2Qt14ConnectionTypeE(ptr dead_on_unwind nonnull writable sret(%"class.QMetaObject::Connection") align 8 %5, ptr noundef %14, ptr noundef nonnull @.str.27, ptr noundef %0, ptr noundef nonnull @.str.32, i32 noundef 0)
  call void @_ZN11QMetaObject10ConnectionD1Ev(ptr noundef nonnull align 8 dereferenceable_or_null(8) %5) #31
  ret void

20:                                               ; preds = %1
  %21 = landingpad { ptr, i32 }
          cleanup
  br label %_ZN7QStringD2Ev.exit23

22:                                               ; preds = %_ZN18TapParameterDialog2trEPKcS1_i.exit
  %23 = landingpad { ptr, i32 }
          cleanup
  %24 = load ptr, ptr %2, align 8
  %.not.i.i.i20 = icmp eq ptr %24, null
  br i1 %.not.i.i.i20, label %_ZN7QStringD2Ev.exit23, label %_ZN17QArrayDataPointerIDsE5derefEv.exit.i.i21

_ZN17QArrayDataPointerIDsE5derefEv.exit.i.i21:    ; preds = %22
  %25 = atomicrmw sub ptr %24, i32 1 seq_cst, align 4
  %.not.i.i22 = icmp eq i32 %25, 1
  br i1 %.not.i.i22, label %26, label %_ZN7QStringD2Ev.exit23

26:                                               ; preds = %_ZN17QArrayDataPointerIDsE5derefEv.exit.i.i21
  %27 = load ptr, ptr %2, align 8
  call void @_ZN10QArrayData10deallocateEPS_xx(ptr noundef %27, i64 noundef 2, i64 noundef 8) #31
  br label %_ZN7QStringD2Ev.exit23

_ZN7QStringD2Ev.exit23:                           ; preds = %26, %_ZN17QArrayDataPointerIDsE5derefEv.exit.i.i21, %22, %20
  %.pn = phi { ptr, i32 } [ %21, %20 ], [ %23, %22 ], [ %23, %_ZN17QArrayDataPointerIDsE5derefEv.exit.i.i21 ], [ %23, %26 ]
  call void @llvm.lifetime.end.p0(i64 24, ptr nonnull %2) #31
  br label %36

28:                                               ; preds = %_ZN7QStringD2Ev.exit
  %29 = landingpad { ptr, i32 }
          cleanup
  br label %_ZN7QStringD2Ev.exit27

30:                                               ; preds = %_ZN18TapParameterDialog2trEPKcS1_i.exit15
  %31 = landingpad { ptr, i32 }
          cleanup
  %32 = load ptr, ptr %4, align 8
  %.not.i.i.i24 = icmp eq ptr %32, null
  br i1 %.not.i.i.i24, label %_ZN7QStringD2Ev.exit27, label %_ZN17QArrayDataPointerIDsE5derefEv.exit.i.i25

_ZN17QArrayDataPointerIDsE5derefEv.exit.i.i25:    ; preds = %30
  %33 = atomicrmw sub ptr %32, i32 1 seq_cst, align 4
  %.not.i.i26 = icmp eq i32 %33, 1
  br i1 %.not.i.i26, label %34, label %_ZN7QStringD2Ev.exit27

34:                                               ; preds = %_ZN17QArrayDataPointerIDsE5derefEv.exit.i.i25
  %35 = load ptr, ptr %4, align 8
  call void @_ZN10QArrayData10deallocateEPS_xx(ptr noundef %35, i64 noundef 2, i64 noundef 8) #31
  br label %_ZN7QStringD2Ev.exit27

_ZN7QStringD2Ev.exit27:                           ; preds = %34, %_ZN17QArrayDataPointerIDsE5derefEv.exit.i.i25, %30, %28
  %.pn12 = phi { ptr, i32 } [ %29, %28 ], [ %31, %30 ], [ %31, %_ZN17QArrayDataPointerIDsE5derefEv.exit.i.i25 ], [ %31, %34 ]
  call void @llvm.lifetime.end.p0(i64 24, ptr nonnull %4) #31
  br label %36

36:                                               ; preds = %_ZN7QStringD2Ev.exit23, %_ZN7QStringD2Ev.exit27
  %.sink = phi ptr [ %8, %_ZN7QStringD2Ev.exit23 ], [ %14, %_ZN7QStringD2Ev.exit27 ]
  %.pn12.pn = phi { ptr, i32 } [ %.pn, %_ZN7QStringD2Ev.exit23 ], [ %.pn12, %_ZN7QStringD2Ev.exit27 ]
  call void @_ZdlPvm(ptr noundef %.sink, i64 noundef 16) #32
  resume { ptr, i32 } %.pn12.pn
}